target datalayout = "e-m:e-p270:32:32-p271:32:32-p272:64:64-i64:64-i128:128-f80:128-n8:16:32:64-S128"
target triple = "x86_64-pc-linux-gnu"

%"class.OpenColorIO_v2_5dev::Renderer_ACES_RedMod03_Fwd" = type <{ %"class.OpenColorIO_v2_5dev::OpCPU", float, float, float, [4 x i8] }>
%"class.OpenColorIO_v2_5dev::OpCPU" = type { ptr }

; Function Attrs: inlinehint mustprogress nounwind uwtable
define linkonce_odr noundef float @_ZSt5atan2ff(float noundef %0, float noundef %1) #10 comdat {
  %3 = alloca float, align 4
  %4 = alloca float, align 4
  store float %0, ptr %3, align 4, !tbaa !31
  store float %1, ptr %4, align 4, !tbaa !31
  %5 = load float, ptr %3, align 4, !tbaa !31
  %6 = load float, ptr %4, align 4, !tbaa !31
  %7 = call float @atan2f(float noundef %5, float noundef %6) #3, !tbaa !34
  ret float %7
}

; Function Attrs: inlinehint mustprogress nounwind uwtable
define linkonce_odr noundef nonnull align 4 dereferenceable(4) ptr @_ZSt3maxIfERKT_S2_S2_(ptr noundef nonnull align 4 dereferenceable(4) %0, ptr noundef nonnull align 4 dereferenceable(4) %1) #10 comdat {
  %3 = alloca ptr, align 8
  %4 = alloca ptr, align 8
  %5 = alloca ptr, align 8
  store ptr %0, ptr %4, align 8, !tbaa !29
  store ptr %1, ptr %5, align 8, !tbaa !29
  %6 = load ptr, ptr %4, align 8, !tbaa !29
  %7 = load float, ptr %6, align 4, !tbaa !31
  %8 = load ptr, ptr %5, align 8, !tbaa !29
  %9 = load float, ptr %8, align 4, !tbaa !31
  %10 = fcmp olt float %7, %9
  br i1 %10, label %11, label %13

11:                                               ; preds = %2
  %12 = load ptr, ptr %5, align 8, !tbaa !29
  store ptr %12, ptr %3, align 8
  br label %15

13:                                               ; preds = %2
  %14 = load ptr, ptr %4, align 8, !tbaa !29
  store ptr %14, ptr %3, align 8
  br label %15

15:                                               ; preds = %13, %11
  %16 = load ptr, ptr %3, align 8
  ret ptr %16
}

; Function Attrs: inlinehint mustprogress nounwind uwtable
define linkonce_odr noundef float @_ZSt4sqrtf(float noundef %0) #10 comdat {
  %2 = alloca float, align 4
  store float %0, ptr %2, align 4, !tbaa !31
  %3 = load float, ptr %2, align 4, !tbaa !31
  %4 = call float @sqrtf(float noundef %3) #3, !tbaa !34
  ret float %4
}

; Function Attrs: inlinehint mustprogress uwtable
define linkonce_odr hidden noundef float @_ZN19OpenColorIO_v2_5dev13CalcHueWeightEffff(float noundef %0, float noundef %1, float noundef %2, float noundef %3) #8 comdat {
  %5 = alloca float, align 4
  %6 = alloca float, align 4
  %7 = alloca float, align 4
  %8 = alloca float, align 4
  %9 = alloca float, align 4
  %10 = alloca float, align 4
  %11 = alloca float, align 4
  %12 = alloca float, align 4
  %13 = alloca i32, align 4
  %14 = alloca float, align 4
  %15 = alloca float, align 4
  %16 = alloca ptr, align 8
  store float %0, ptr %5, align 4, !tbaa !31
  store float %1, ptr %6, align 4, !tbaa !31
  store float %2, ptr %7, align 4, !tbaa !31
  store float %3, ptr %8, align 4, !tbaa !31
  call void @llvm.lifetime.start.p0(i64 4, ptr %9) #3
  %17 = load float, ptr %5, align 4, !tbaa !31
  %18 = load float, ptr %6, align 4, !tbaa !31
  %19 = load float, ptr %7, align 4, !tbaa !31
  %20 = fadd float %18, %19
  %21 = fneg float %20
  %22 = call float @llvm.fmuladd.f32(float 2.000000e+00, float %17, float %21)
  store float %22, ptr %9, align 4, !tbaa !31
  call void @llvm.lifetime.start.p0(i64 4, ptr %10) #3
  %23 = load float, ptr %6, align 4, !tbaa !31
  %24 = load float, ptr %7, align 4, !tbaa !31
  %25 = fsub float %23, %24
  %26 = fmul float 0x3FFBB67AE0000000, %25
  store float %26, ptr %10, align 4, !tbaa !31
  call void @llvm.lifetime.start.p0(i64 4, ptr %11) #3
  %27 = load float, ptr %10, align 4, !tbaa !31
  %28 = load float, ptr %9, align 4, !tbaa !31
  %29 = call noundef float @_ZSt5atan2ff(float noundef %27, float noundef %28)
  store float %29, ptr %11, align 4, !tbaa !31
  call void @llvm.lifetime.start.p0(i64 4, ptr %12) #3
  %30 = load float, ptr %11, align 4, !tbaa !31
  %31 = load float, ptr %8, align 4, !tbaa !31
  %32 = call float @llvm.fmuladd.f32(float %30, float %31, float 2.000000e+00)
  store float %32, ptr %12, align 4, !tbaa !31
  call void @llvm.lifetime.start.p0(i64 4, ptr %13) #3
  %33 = load float, ptr %12, align 4, !tbaa !31
  %34 = fptosi float %33 to i32
  store i32 %34, ptr %13, align 4, !tbaa !34
  call void @llvm.lifetime.start.p0(i64 4, ptr %14) #3
  store float 0.000000e+00, ptr %14, align 4, !tbaa !31
  %35 = load i32, ptr %13, align 4, !tbaa !34
  %36 = icmp sge i32 %35, 0
  br i1 %36, label %37, label %67

37:                                               ; preds = %4
  %38 = load i32, ptr %13, align 4, !tbaa !34
  %39 = icmp slt i32 %38, 4
  br i1 %39, label %40, label %67

40:                                               ; preds = %37
  call void @llvm.lifetime.start.p0(i64 4, ptr %15) #3
  %41 = load float, ptr %12, align 4, !tbaa !31
  %42 = load i32, ptr %13, align 4, !tbaa !34
  %43 = sitofp i32 %42 to float
  %44 = fsub float %41, %43
  store float %44, ptr %15, align 4, !tbaa !31
  call void @llvm.lifetime.start.p0(i64 8, ptr %16) #3
  %45 = load i32, ptr %13, align 4, !tbaa !34
  %46 = sext i32 %45 to i64
  %47 = getelementptr inbounds [4 x [4 x float]], ptr @_ZZN19OpenColorIO_v2_5dev13CalcHueWeightEffffE2_M, i64 0, i64 %46
  %48 = getelementptr inbounds [4 x float], ptr %47, i64 0, i64 0
  store ptr %48, ptr %16, align 8, !tbaa !29
  %49 = load ptr, ptr %16, align 8, !tbaa !29
  %50 = getelementptr inbounds float, ptr %49, i64 3
  %51 = load float, ptr %50, align 4, !tbaa !31
  %52 = load float, ptr %15, align 4, !tbaa !31
  %53 = load ptr, ptr %16, align 8, !tbaa !29
  %54 = getelementptr inbounds float, ptr %53, i64 2
  %55 = load float, ptr %54, align 4, !tbaa !31
  %56 = load float, ptr %15, align 4, !tbaa !31
  %57 = load ptr, ptr %16, align 8, !tbaa !29
  %58 = getelementptr inbounds float, ptr %57, i64 1
  %59 = load float, ptr %58, align 4, !tbaa !31
  %60 = load float, ptr %15, align 4, !tbaa !31
  %61 = load ptr, ptr %16, align 8, !tbaa !29
  %62 = getelementptr inbounds float, ptr %61, i64 0
  %63 = load float, ptr %62, align 4, !tbaa !31
  %64 = call float @llvm.fmuladd.f32(float %60, float %63, float %59)
  %65 = call float @llvm.fmuladd.f32(float %56, float %64, float %55)
  %66 = call float @llvm.fmuladd.f32(float %52, float %65, float %51)
  store float %66, ptr %14, align 4, !tbaa !31
  call void @llvm.lifetime.end.p0(i64 8, ptr %16) #3
  call void @llvm.lifetime.end.p0(i64 4, ptr %15) #3
  br label %67

67:                                               ; preds = %40, %37, %4
  %68 = load float, ptr %14, align 4, !tbaa !31
  call void @llvm.lifetime.end.p0(i64 4, ptr %14) #3
  call void @llvm.lifetime.end.p0(i64 4, ptr %13) #3
  call void @llvm.lifetime.end.p0(i64 4, ptr %12) #3
  call void @llvm.lifetime.end.p0(i64 4, ptr %11) #3
  call void @llvm.lifetime.end.p0(i64 4, ptr %10) #3
  call void @llvm.lifetime.end.p0(i64 4, ptr %9) #3
  ret float %68
}

; Function Attrs: mustprogress uwtable
define hidden void @_ZNK19OpenColorIO_v2_5dev26Renderer_ACES_RedMod03_Inv5applyEPKvPvl(ptr noundef nonnull align 8 dereferenceable(20) %0, ptr noundef %1, ptr noundef %2, i64 noundef %3) unnamed_addr #6 align 2 {
  %5 = alloca ptr, align 8
  %6 = alloca ptr, align 8
  %7 = alloca ptr, align 8
  %8 = alloca i64, align 8
  %9 = alloca ptr, align 8
  %10 = alloca ptr, align 8
  %11 = alloca i64, align 8
  %12 = alloca float, align 4
  %13 = alloca float, align 4
  %14 = alloca float, align 4
  %15 = alloca float, align 4
  %16 = alloca float, align 4
  %17 = alloca float, align 4
  %18 = alloca float, align 4
  %19 = alloca float, align 4
  %20 = alloca float, align 4
  %21 = alloca float, align 4
  %22 = alloca float, align 4
  %23 = alloca float, align 4
  %24 = alloca float, align 4
  %25 = alloca float, align 4
  %26 = alloca float, align 4
  store ptr %0, ptr %5, align 8, !tbaa !36
  store ptr %1, ptr %6, align 8, !tbaa !26
  store ptr %2, ptr %7, align 8, !tbaa !26
  store i64 %3, ptr %8, align 8, !tbaa !27
  %27 = load ptr, ptr %5, align 8
  call void @llvm.lifetime.start.p0(i64 8, ptr %9) #3
  %28 = load ptr, ptr %6, align 8, !tbaa !26
  store ptr %28, ptr %9, align 8, !tbaa !29
  call void @llvm.lifetime.start.p0(i64 8, ptr %10) #3
  %29 = load ptr, ptr %7, align 8, !tbaa !26
  store ptr %29, ptr %10, align 8, !tbaa !29
  call void @llvm.lifetime.start.p0(i64 8, ptr %11) #3
  store i64 0, ptr %11, align 8, !tbaa !27
  br label %30

30:                                               ; preds = %158, %4
  %31 = load i64, ptr %11, align 8, !tbaa !27
  %32 = load i64, ptr %8, align 8, !tbaa !27
  %33 = icmp slt i64 %31, %32
  br i1 %33, label %35, label %34

34:                                               ; preds = %30
  call void @llvm.lifetime.end.p0(i64 8, ptr %11) #3
  br label %161

35:                                               ; preds = %30
  call void @llvm.lifetime.start.p0(i64 4, ptr %12) #3
  %36 = load ptr, ptr %9, align 8, !tbaa !29
  %37 = getelementptr inbounds float, ptr %36, i64 0
  %38 = load float, ptr %37, align 4, !tbaa !31
  store float %38, ptr %12, align 4, !tbaa !31
  call void @llvm.lifetime.start.p0(i64 4, ptr %13) #3
  %39 = load ptr, ptr %9, align 8, !tbaa !29
  %40 = getelementptr inbounds float, ptr %39, i64 1
  %41 = load float, ptr %40, align 4, !tbaa !31
  store float %41, ptr %13, align 4, !tbaa !31
  call void @llvm.lifetime.start.p0(i64 4, ptr %14) #3
  %42 = load ptr, ptr %9, align 8, !tbaa !29
  %43 = getelementptr inbounds float, ptr %42, i64 2
  %44 = load float, ptr %43, align 4, !tbaa !31
  store float %44, ptr %14, align 4, !tbaa !31
  call void @llvm.lifetime.start.p0(i64 4, ptr %15) #3
  %45 = load float, ptr %12, align 4, !tbaa !31
  %46 = load float, ptr %13, align 4, !tbaa !31
  %47 = load float, ptr %14, align 4, !tbaa !31
  %48 = getelementptr inbounds nuw %"class.OpenColorIO_v2_5dev::Renderer_ACES_RedMod03_Fwd", ptr %27, i32 0, i32 3
  %49 = load float, ptr %48, align 8, !tbaa !23
  %50 = call noundef float @_ZN19OpenColorIO_v2_5dev13CalcHueWeightEffff(float noundef %45, float noundef %46, float noundef %47, float noundef %49)
  store float %50, ptr %15, align 4, !tbaa !31
  %51 = load float, ptr %15, align 4, !tbaa !31
  %52 = fcmp ogt float %51, 0.000000e+00
  br i1 %52, label %53, label %139

53:                                               ; preds = %35
  call void @llvm.lifetime.start.p0(i64 4, ptr %16) #3
  %54 = load float, ptr %13, align 4, !tbaa !31
  %55 = load float, ptr %14, align 4, !tbaa !31
  %56 = fcmp olt float %54, %55
  br i1 %56, label %57, label %59

57:                                               ; preds = %53
  %58 = load float, ptr %13, align 4, !tbaa !31
  br label %61

59:                                               ; preds = %53
  %60 = load float, ptr %14, align 4, !tbaa !31
  br label %61

61:                                               ; preds = %59, %57
  %62 = phi float [ %58, %57 ], [ %60, %59 ]
  store float %62, ptr %16, align 4, !tbaa !31
  call void @llvm.lifetime.start.p0(i64 4, ptr %17) #3
  %63 = load float, ptr %15, align 4, !tbaa !31
  %64 = getelementptr inbounds nuw %"class.OpenColorIO_v2_5dev::Renderer_ACES_RedMod03_Fwd", ptr %27, i32 0, i32 1
  %65 = load float, ptr %64, align 8, !tbaa !18
  %66 = call float @llvm.fmuladd.f32(float %63, float %65, float -1.000000e+00)
  store float %66, ptr %17, align 4, !tbaa !31
  call void @llvm.lifetime.start.p0(i64 4, ptr %18) #3
  %67 = load float, ptr %12, align 4, !tbaa !31
  %68 = load float, ptr %15, align 4, !tbaa !31
  %69 = getelementptr inbounds nuw %"class.OpenColorIO_v2_5dev::Renderer_ACES_RedMod03_Fwd", ptr %27, i32 0, i32 2
  %70 = load float, ptr %69, align 4, !tbaa !22
  %71 = load float, ptr %16, align 4, !tbaa !31
  %72 = fadd float %70, %71
  %73 = fmul float %68, %72
  %74 = getelementptr inbounds nuw %"class.OpenColorIO_v2_5dev::Renderer_ACES_RedMod03_Fwd", ptr %27, i32 0, i32 1
  %75 = load float, ptr %74, align 8, !tbaa !18
  %76 = fneg float %73
  %77 = call float @llvm.fmuladd.f32(float %76, float %75, float %67)
  store float %77, ptr %18, align 4, !tbaa !31
  call void @llvm.lifetime.start.p0(i64 4, ptr %19) #3
  %78 = load float, ptr %15, align 4, !tbaa !31
  %79 = getelementptr inbounds nuw %"class.OpenColorIO_v2_5dev::Renderer_ACES_RedMod03_Fwd", ptr %27, i32 0, i32 2
  %80 = load float, ptr %79, align 4, !tbaa !22
  %81 = fmul float %78, %80
  %82 = load float, ptr %16, align 4, !tbaa !31
  %83 = fmul float %81, %82
  %84 = getelementptr inbounds nuw %"class.OpenColorIO_v2_5dev::Renderer_ACES_RedMod03_Fwd", ptr %27, i32 0, i32 1
  %85 = load float, ptr %84, align 8, !tbaa !18
  %86 = fmul float %83, %85
  store float %86, ptr %19, align 4, !tbaa !31
  call void @llvm.lifetime.start.p0(i64 4, ptr %20) #3
  %87 = load float, ptr %18, align 4, !tbaa !31
  %88 = fneg float %87
  %89 = load float, ptr %18, align 4, !tbaa !31
  %90 = load float, ptr %18, align 4, !tbaa !31
  %91 = load float, ptr %17, align 4, !tbaa !31
  %92 = fmul float 4.000000e+00, %91
  %93 = load float, ptr %19, align 4, !tbaa !31
  %94 = fmul float %92, %93
  %95 = fneg float %94
  %96 = call float @llvm.fmuladd.f32(float %89, float %90, float %95)
  %97 = call noundef float @_ZSt4sqrtf(float noundef %96)
  %98 = fsub float %88, %97
  %99 = load float, ptr %17, align 4, !tbaa !31
  %100 = fmul float 2.000000e+00, %99
  %101 = fdiv float %98, %100
  store float %101, ptr %20, align 4, !tbaa !31
  %102 = load float, ptr %13, align 4, !tbaa !31
  %103 = load float, ptr %14, align 4, !tbaa !31
  %104 = fcmp oge float %102, %103
  br i1 %104, label %105, label %121

105:                                              ; preds = %61
  call void @llvm.lifetime.start.p0(i64 4, ptr %21) #3
  %106 = load float, ptr %13, align 4, !tbaa !31
  %107 = load float, ptr %14, align 4, !tbaa !31
  %108 = fsub float %106, %107
  call void @llvm.lifetime.start.p0(i64 4, ptr %22) #3
  store float 0x3DDB7CDFE0000000, ptr %22, align 4, !tbaa !31
  call void @llvm.lifetime.start.p0(i64 4, ptr %23) #3
  %109 = load float, ptr %12, align 4, !tbaa !31
  %110 = load float, ptr %14, align 4, !tbaa !31
  %111 = fsub float %109, %110
  store float %111, ptr %23, align 4, !tbaa !31
  %112 = call noundef nonnull align 4 dereferenceable(4) ptr @_ZSt3maxIfERKT_S2_S2_(ptr noundef nonnull align 4 dereferenceable(4) %22, ptr noundef nonnull align 4 dereferenceable(4) %23)
  %113 = load float, ptr %112, align 4, !tbaa !31
  %114 = fdiv float %108, %113
  call void @llvm.lifetime.end.p0(i64 4, ptr %23) #3
  call void @llvm.lifetime.end.p0(i64 4, ptr %22) #3
  store float %114, ptr %21, align 4, !tbaa !31
  %115 = load float, ptr %21, align 4, !tbaa !31
  %116 = load float, ptr %20, align 4, !tbaa !31
  %117 = load float, ptr %14, align 4, !tbaa !31
  %118 = fsub float %116, %117
  %119 = load float, ptr %14, align 4, !tbaa !31
  %120 = call float @llvm.fmuladd.f32(float %115, float %118, float %119)
  store float %120, ptr %13, align 4, !tbaa !31
  call void @llvm.lifetime.end.p0(i64 4, ptr %21) #3
  br label %137

121:                                              ; preds = %61
  call void @llvm.lifetime.start.p0(i64 4, ptr %24) #3
  %122 = load float, ptr %14, align 4, !tbaa !31
  %123 = load float, ptr %13, align 4, !tbaa !31
  %124 = fsub float %122, %123
  call void @llvm.lifetime.start.p0(i64 4, ptr %25) #3
  store float 0x3DDB7CDFE0000000, ptr %25, align 4, !tbaa !31
  call void @llvm.lifetime.start.p0(i64 4, ptr %26) #3
  %125 = load float, ptr %12, align 4, !tbaa !31
  %126 = load float, ptr %13, align 4, !tbaa !31
  %127 = fsub float %125, %126
  store float %127, ptr %26, align 4, !tbaa !31
  %128 = call noundef nonnull align 4 dereferenceable(4) ptr @_ZSt3maxIfERKT_S2_S2_(ptr noundef nonnull align 4 dereferenceable(4) %25, ptr noundef nonnull align 4 dereferenceable(4) %26)
  %129 = load float, ptr %128, align 4, !tbaa !31
  %130 = fdiv float %124, %129
  call void @llvm.lifetime.end.p0(i64 4, ptr %26) #3
  call void @llvm.lifetime.end.p0(i64 4, ptr %25) #3
  store float %130, ptr %24, align 4, !tbaa !31
  %131 = load float, ptr %24, align 4, !tbaa !31
  %132 = load float, ptr %20, align 4, !tbaa !31
  %133 = load float, ptr %13, align 4, !tbaa !31
  %134 = fsub float %132, %133
  %135 = load float, ptr %13, align 4, !tbaa !31
  %136 = call float @llvm.fmuladd.f32(float %131, float %134, float %135)
  store float %136, ptr %14, align 4, !tbaa !31
  call void @llvm.lifetime.end.p0(i64 4, ptr %24) #3
  br label %137

137:                                              ; preds = %121, %105
  %138 = load float, ptr %20, align 4, !tbaa !31
  store float %138, ptr %12, align 4, !tbaa !31
  call void @llvm.lifetime.end.p0(i64 4, ptr %20) #3
  call void @llvm.lifetime.end.p0(i64 4, ptr %19) #3
  call void @llvm.lifetime.end.p0(i64 4, ptr %18) #3
  call void @llvm.lifetime.end.p0(i64 4, ptr %17) #3
  call void @llvm.lifetime.end.p0(i64 4, ptr %16) #3
  br label %139

139:                                              ; preds = %137, %35
  %140 = load float, ptr %12, align 4, !tbaa !31
  %141 = load ptr, ptr %10, align 8, !tbaa !29
  %142 = getelementptr inbounds float, ptr %141, i64 0
  store float %140, ptr %142, align 4, !tbaa !31
  %143 = load float, ptr %13, align 4, !tbaa !31
  %144 = load ptr, ptr %10, align 8, !tbaa !29
  %145 = getelementptr inbounds float, ptr %144, i64 1
  store float %143, ptr %145, align 4, !tbaa !31
  %146 = load float, ptr %14, align 4, !tbaa !31
  %147 = load ptr, ptr %10, align 8, !tbaa !29
  %148 = getelementptr inbounds float, ptr %147, i64 2
  store float %146, ptr %148, align 4, !tbaa !31
  %149 = load ptr, ptr %9, align 8, !tbaa !29
  %150 = getelementptr inbounds float, ptr %149, i64 3
  %151 = load float, ptr %150, align 4, !tbaa !31
  %152 = load ptr, ptr %10, align 8, !tbaa !29
  %153 = getelementptr inbounds float, ptr %152, i64 3
  store float %151, ptr %153, align 4, !tbaa !31
  %154 = load ptr, ptr %9, align 8, !tbaa !29
  %155 = getelementptr inbounds float, ptr %154, i64 4
  store ptr %155, ptr %9, align 8, !tbaa !29
  %156 = load ptr, ptr %10, align 8, !tbaa !29
  %157 = getelementptr inbounds float, ptr %156, i64 4
  store ptr %157, ptr %10, align 8, !tbaa !29
  call void @llvm.lifetime.end.p0(i64 4, ptr %15) #3
  call void @llvm.lifetime.end.p0(i64 4, ptr %14) #3
  call void @llvm.lifetime.end.p0(i64 4, ptr %13) #3
  call void @llvm.lifetime.end.p0(i64 4, ptr %12) #3
  br label %158

158:                                              ; preds = %139
  %159 = load i64, ptr %11, align 8, !tbaa !27
  %160 = add nsw i64 %159, 1
  store i64 %160, ptr %11, align 8, !tbaa !27
  br label %30, !llvm.loop !38

161:                                              ; preds = %34
  call void @llvm.lifetime.end.p0(i64 8, ptr %10) #3
  call void @llvm.lifetime.end.p0(i64 8, ptr %9) #3
  ret void
}