; Function Attrs: mustprogress nofree nounwind memory(write, argmem: readwrite) uwtable
define hidden void @_ZNK19OpenColorIO_v2_5dev26Renderer_ACES_RedMod03_Inv5applyEPKvPvl(ptr noundef nonnull readonly align 8 captures(none) dereferenceable(20) %0, ptr noundef readonly captures(none) %1, ptr noundef writeonly captures(none) %2, i64 noundef %3) unnamed_addr #5 align 2 {
  %5 = icmp sgt i64 %3, 0
  br i1 %5, label %.lr.ph, label %._crit_edge

.lr.ph:                                           ; preds = %4
  %6 = getelementptr inbounds nuw i8, ptr %0, i64 16
  %7 = getelementptr inbounds nuw i8, ptr %0, i64 8
  %8 = getelementptr inbounds nuw i8, ptr %0, i64 12
  br label %9

._crit_edge:                                      ; preds = %_ZN19OpenColorIO_v2_5dev13CalcHueWeightEffff.exit.thread, %4
  ret void

9:                                                ; preds = %.lr.ph, %_ZN19OpenColorIO_v2_5dev13CalcHueWeightEffff.exit.thread
  %.077 = phi ptr [ %1, %.lr.ph ], [ %80, %_ZN19OpenColorIO_v2_5dev13CalcHueWeightEffff.exit.thread ]
  %.05776 = phi ptr [ %2, %.lr.ph ], [ %81, %_ZN19OpenColorIO_v2_5dev13CalcHueWeightEffff.exit.thread ]
  %.05875 = phi i64 [ 0, %.lr.ph ], [ %82, %_ZN19OpenColorIO_v2_5dev13CalcHueWeightEffff.exit.thread ]
  %10 = load float, ptr %.077, align 4, !tbaa !13
  %11 = getelementptr inbounds nuw i8, ptr %.077, i64 4
  %12 = load float, ptr %11, align 4, !tbaa !13
  %13 = getelementptr inbounds nuw i8, ptr %.077, i64 8
  %14 = load float, ptr %13, align 4, !tbaa !13
  %15 = load float, ptr %6, align 8, !tbaa !12
  %16 = fadd float %12, %14
  %17 = fneg float %16
  %18 = tail call float @llvm.fmuladd.f32(float %10, float 2.000000e+00, float %17)
  %19 = fsub float %12, %14
  %20 = fmul float %19, 0x3FFBB67AE0000000
  %21 = tail call noundef float @atan2f(float noundef %20, float noundef %18) #28, !tbaa !14
  %22 = tail call float @llvm.fmuladd.f32(float %21, float %15, float 2.000000e+00)
  %23 = fptosi float %22 to i32
  %or.cond.i = icmp ult i32 %23, 4
  br i1 %or.cond.i, label %_ZN19OpenColorIO_v2_5dev13CalcHueWeightEffff.exit, label %_ZN19OpenColorIO_v2_5dev13CalcHueWeightEffff.exit.thread

_ZN19OpenColorIO_v2_5dev13CalcHueWeightEffff.exit: ; preds = %9
  %24 = uitofp nneg i32 %23 to float
  %25 = fsub float %22, %24
  %26 = zext nneg i32 %23 to i64
  %27 = getelementptr inbounds nuw [4 x [4 x float]], ptr @_ZZN19OpenColorIO_v2_5dev13CalcHueWeightEffffE2_M, i64 0, i64 %26
  %28 = getelementptr inbounds nuw i8, ptr %27, i64 12
  %29 = load float, ptr %28, align 4, !tbaa !13
  %30 = getelementptr inbounds nuw i8, ptr %27, i64 8
  %31 = load float, ptr %30, align 8, !tbaa !13
  %32 = getelementptr inbounds nuw i8, ptr %27, i64 4
  %33 = load float, ptr %32, align 4, !tbaa !13
  %34 = load float, ptr %27, align 16, !tbaa !13
  %35 = tail call float @llvm.fmuladd.f32(float %25, float %34, float %33)
  %36 = tail call float @llvm.fmuladd.f32(float %25, float %35, float %31)
  %37 = tail call float @llvm.fmuladd.f32(float %25, float %36, float %29)
  %38 = fcmp ogt float %37, 0.000000e+00
  br i1 %38, label %39, label %_ZN19OpenColorIO_v2_5dev13CalcHueWeightEffff.exit.thread

39:                                               ; preds = %_ZN19OpenColorIO_v2_5dev13CalcHueWeightEffff.exit
  %40 = fcmp olt float %12, %14
  %41 = select i1 %40, float %12, float %14
  %42 = load float, ptr %7, align 8, !tbaa !6
  %43 = tail call float @llvm.fmuladd.f32(float %37, float %42, float -1.000000e+00)
  %44 = load float, ptr %8, align 4, !tbaa !11
  %45 = fadd float %41, %44
  %46 = fneg float %45
  %47 = fmul float %37, %46
  %48 = tail call float @llvm.fmuladd.f32(float %47, float %42, float %10)
  %49 = fmul float %37, %44
  %50 = fmul float %41, %49
  %51 = fneg float %48
  %52 = fmul float %43, 4.000000e+00
  %53 = fneg float %42
  %54 = fmul float %50, %53
  %55 = fmul float %52, %54
  %56 = tail call float @llvm.fmuladd.f32(float %48, float %48, float %55)
  %57 = tail call noundef float @sqrtf(float noundef %56) #28, !tbaa !14
  %58 = fsub float %51, %57
  %59 = fmul float %43, 2.000000e+00
  %60 = fdiv float %58, %59
  %61 = fcmp ult float %12, %14
  br i1 %61, label %68, label %62

62:                                               ; preds = %39
  %63 = fsub float %10, %14
  %64 = fcmp ogt float %63, 0x3DDB7CDFE0000000
  %.sroa.speculated70 = select i1 %64, float %63, float 0x3DDB7CDFE0000000
  %65 = fdiv float %19, %.sroa.speculated70
  %66 = fsub float %60, %14
  %67 = tail call float @llvm.fmuladd.f32(float %65, float %66, float %14)
  br label %_ZN19OpenColorIO_v2_5dev13CalcHueWeightEffff.exit.thread

68:                                               ; preds = %39
  %69 = fsub float %14, %12
  %70 = fsub float %10, %12
  %71 = fcmp ogt float %70, 0x3DDB7CDFE0000000
  %.sroa.speculated = select i1 %71, float %70, float 0x3DDB7CDFE0000000
  %72 = fdiv float %69, %.sroa.speculated
  %73 = fsub float %60, %12
  %74 = tail call float @llvm.fmuladd.f32(float %72, float %73, float %12)
  br label %_ZN19OpenColorIO_v2_5dev13CalcHueWeightEffff.exit.thread

_ZN19OpenColorIO_v2_5dev13CalcHueWeightEffff.exit.thread: ; preds = %9, %62, %68, %_ZN19OpenColorIO_v2_5dev13CalcHueWeightEffff.exit
  %.061 = phi float [ %14, %_ZN19OpenColorIO_v2_5dev13CalcHueWeightEffff.exit ], [ %14, %62 ], [ %74, %68 ], [ %14, %9 ]
  %.060 = phi float [ %12, %_ZN19OpenColorIO_v2_5dev13CalcHueWeightEffff.exit ], [ %67, %62 ], [ %12, %68 ], [ %12, %9 ]
  %.059 = phi float [ %10, %_ZN19OpenColorIO_v2_5dev13CalcHueWeightEffff.exit ], [ %60, %62 ], [ %60, %68 ], [ %10, %9 ]
  store float %.059, ptr %.05776, align 4, !tbaa !13
  %75 = getelementptr inbounds nuw i8, ptr %.05776, i64 4
  store float %.060, ptr %75, align 4, !tbaa !13
  %76 = getelementptr inbounds nuw i8, ptr %.05776, i64 8
  store float %.061, ptr %76, align 4, !tbaa !13
  %77 = getelementptr inbounds nuw i8, ptr %.077, i64 12
  %78 = load float, ptr %77, align 4, !tbaa !13
  %79 = getelementptr inbounds nuw i8, ptr %.05776, i64 12
  store float %78, ptr %79, align 4, !tbaa !13
  %80 = getelementptr inbounds nuw i8, ptr %.077, i64 16
  %81 = getelementptr inbounds nuw i8, ptr %.05776, i64 16
  %82 = add nuw nsw i64 %.05875, 1
  %exitcond.not = icmp eq i64 %82, %3
  br i1 %exitcond.not, label %._crit_edge, label %9, !llvm.loop !18
}